; Function Attrs: mustprogress nofree norecurse nosync nounwind willreturn memory(read, inaccessiblemem: none) uwtable
define hidden noundef i32 @_ZNK2bv6solver7get_bitEjPN3euf5enodeE(ptr nocapture noundef nonnull readonly align 8 dereferenceable(640) %this, i32 noundef %bit, ptr nocapture noundef readonly %n) local_unnamed_addr #10 align 2 {
entry:
  %m_id.i = getelementptr inbounds i8, ptr %this, i64 12
  %0 = load i32, ptr %m_id.i, align 4
  %m_th_vars.i = getelementptr inbounds i8, ptr %n, i64 88
  %bf.load.i.i.i.i = load i32, ptr %m_th_vars.i, align 8
  %cmp.i.i.i = icmp ugt i32 %bf.load.i.i.i.i, -257
  br i1 %cmp.i.i.i, label %return, label %do.body.i.i

do.body.i.i:                                      ; preds = %entry, %if.end5.i.i
  %l.0.i.i = phi ptr [ %1, %if.end5.i.i ], [ %m_th_vars.i, %entry ]
  %bf.load.i.i.i = load i32, ptr %l.0.i.i, align 8
  %bf.shl.i.i.i = shl i32 %bf.load.i.i.i, 24
  %bf.ashr.i.i.i = ashr exact i32 %bf.shl.i.i.i, 24
  %cmp.i.i = icmp eq i32 %bf.ashr.i.i.i, %0
  br i1 %cmp.i.i, label %_ZNK3euf5enode10get_th_varEi.exit, label %if.end5.i.i

if.end5.i.i:                                      ; preds = %do.body.i.i
  %m_next.i.i.i = getelementptr inbounds i8, ptr %l.0.i.i, i64 8
  %1 = load ptr, ptr %m_next.i.i.i, align 8
  %tobool.not.i.i = icmp eq ptr %1, null
  br i1 %tobool.not.i.i, label %return, label %do.body.i.i, !llvm.loop !15

_ZNK3euf5enode10get_th_varEi.exit:                ; preds = %do.body.i.i
  %bf.ashr.i5.i.i = ashr i32 %bf.load.i.i.i, 8
  %cmp = icmp eq i32 %bf.ashr.i5.i.i, -1
  br i1 %cmp, label %return, label %if.end

if.end:                                           ; preds = %_ZNK3euf5enode10get_th_varEi.exit
  %m_bits = getelementptr inbounds i8, ptr %this, i64 456
  %2 = load ptr, ptr %m_bits, align 8
  %idxprom.i = zext i32 %bf.ashr.i5.i.i to i64
  %arrayidx.i = getelementptr inbounds %class.svector.3, ptr %2, i64 %idxprom.i
  %3 = load ptr, ptr %arrayidx.i, align 8
  %cmp.i = icmp eq ptr %3, null
  br i1 %cmp.i, label %return, label %_ZNK6vectorIN3sat7literalELb0EjE4sizeEv.exit

_ZNK6vectorIN3sat7literalELb0EjE4sizeEv.exit:     ; preds = %if.end
  %arrayidx.i4 = getelementptr inbounds i8, ptr %3, i64 -4
  %4 = load i32, ptr %arrayidx.i4, align 4
  %cmp5.not = icmp ugt i32 %4, %bit
  br i1 %cmp5.not, label %if.end7, label %return

if.end7:                                          ; preds = %_ZNK6vectorIN3sat7literalELb0EjE4sizeEv.exit
  %idxprom.i5 = zext i32 %bit to i64
  %arrayidx.i6 = getelementptr inbounds %"class.sat::literal", ptr %3, i64 %idxprom.i5
  %5 = load i32, ptr %arrayidx.i6, align 4
  %shr.i = lshr i32 %5, 1
  br label %return

return:                                           ; preds = %if.end5.i.i, %if.end, %entry, %_ZNK6vectorIN3sat7literalELb0EjE4sizeEv.exit, %_ZNK3euf5enode10get_th_varEi.exit, %if.end7
  %retval.0 = phi i32 [ %shr.i, %if.end7 ], [ 2147483647, %_ZNK3euf5enode10get_th_varEi.exit ], [ 2147483647, %_ZNK6vectorIN3sat7literalELb0EjE4sizeEv.exit ], [ 2147483647, %entry ], [ 2147483647, %if.end ], [ 2147483647, %if.end5.i.i ]
  ret i32 %retval.0
}